; Function Attrs: mustprogress nofree norecurse nosync nounwind willreturn memory(read, inaccessiblemem: none) uwtable
define i32 @Gia_ObjCompareByValue2(ptr noundef readonly captures(none) %0, ptr noundef readonly captures(none) %1) #10 {
  %3 = load ptr, ptr %0, align 8, !tbaa !69
  %4 = getelementptr inbounds nuw i8, ptr %3, i64 8
  %5 = load i32, ptr %4, align 4, !tbaa !37
  %6 = load ptr, ptr %1, align 8, !tbaa !69
  %7 = getelementptr inbounds nuw i8, ptr %6, i64 8
  %8 = load i32, ptr %7, align 4, !tbaa !37
  %9 = sub nsw i32 %5, %8
  ret i32 %9
}